target datalayout = "e-m:e-p270:32:32-p271:32:32-p272:64:64-i64:64-i128:128-f80:128-n8:16:32:64-S128"
target triple = "x86_64-pc-linux-gnu"

; Function Attrs: alwaysinline nounwind uwtable
define internal void @mbedtls_put_unaligned_uint64(ptr noundef %0, i64 noundef %1) #4 {
  %3 = alloca ptr, align 8
  %4 = alloca i64, align 8
  store ptr %0, ptr %3, align 8, !tbaa !30
  store i64 %1, ptr %4, align 8, !tbaa !38
  %5 = load ptr, ptr %3, align 8, !tbaa !30
  call void @llvm.memcpy.p0.p0.i64(ptr align 1 %5, ptr align 8 %4, i64 8, i1 false)
  ret void
}

; Function Attrs: alwaysinline nounwind uwtable
define internal i64 @mbedtls_get_unaligned_uint64(ptr noundef %0) #4 {
  %2 = alloca ptr, align 8
  %3 = alloca i64, align 8
  store ptr %0, ptr %2, align 8, !tbaa !30
  call void @llvm.lifetime.start.p0(i64 8, ptr %3) #10
  %4 = load ptr, ptr %2, align 8, !tbaa !30
  call void @llvm.memcpy.p0.p0.i64(ptr align 8 %3, ptr align 1 %4, i64 8, i1 false)
  %5 = load i64, ptr %3, align 8, !tbaa !38
  call void @llvm.lifetime.end.p0(i64 8, ptr %3) #10
  ret i64 %5
}

; Function Attrs: alwaysinline nounwind uwtable
define internal void @mbedtls_xor_no_simd(ptr noundef %0, ptr noundef %1, ptr noundef %2, i64 noundef %3) #4 {
  %5 = alloca ptr, align 8
  %6 = alloca ptr, align 8
  %7 = alloca ptr, align 8
  %8 = alloca i64, align 8
  %9 = alloca i64, align 8
  %10 = alloca i64, align 8
  store ptr %0, ptr %5, align 8, !tbaa !10
  store ptr %1, ptr %6, align 8, !tbaa !10
  store ptr %2, ptr %7, align 8, !tbaa !10
  store i64 %3, ptr %8, align 8, !tbaa !38
  call void @llvm.lifetime.start.p0(i64 8, ptr %9) #10
  store i64 0, ptr %9, align 8, !tbaa !38
  br label %11

11:                                               ; preds = %30, %4
  %12 = load i64, ptr %9, align 8, !tbaa !38
  %13 = add i64 %12, 8
  %14 = load i64, ptr %8, align 8, !tbaa !38
  %15 = icmp ule i64 %13, %14
  br i1 %15, label %16, label %33

16:                                               ; preds = %11
  call void @llvm.lifetime.start.p0(i64 8, ptr %10) #10
  %17 = load ptr, ptr %6, align 8, !tbaa !10
  %18 = load i64, ptr %9, align 8, !tbaa !38
  %19 = getelementptr inbounds nuw i8, ptr %17, i64 %18
  %20 = call i64 @mbedtls_get_unaligned_uint64(ptr noundef %19)
  %21 = load ptr, ptr %7, align 8, !tbaa !10
  %22 = load i64, ptr %9, align 8, !tbaa !38
  %23 = getelementptr inbounds nuw i8, ptr %21, i64 %22
  %24 = call i64 @mbedtls_get_unaligned_uint64(ptr noundef %23)
  %25 = xor i64 %20, %24
  store i64 %25, ptr %10, align 8, !tbaa !38
  %26 = load ptr, ptr %5, align 8, !tbaa !10
  %27 = load i64, ptr %9, align 8, !tbaa !38
  %28 = getelementptr inbounds nuw i8, ptr %26, i64 %27
  %29 = load i64, ptr %10, align 8, !tbaa !38
  call void @mbedtls_put_unaligned_uint64(ptr noundef %28, i64 noundef %29)
  call void @llvm.lifetime.end.p0(i64 8, ptr %10) #10
  br label %30

30:                                               ; preds = %16
  %31 = load i64, ptr %9, align 8, !tbaa !38
  %32 = add i64 %31, 8
  store i64 %32, ptr %9, align 8, !tbaa !38
  br label %11, !llvm.loop !41

33:                                               ; preds = %11
  br label %34

34:                                               ; preds = %54, %33
  %35 = load i64, ptr %9, align 8, !tbaa !38
  %36 = load i64, ptr %8, align 8, !tbaa !38
  %37 = icmp ult i64 %35, %36
  br i1 %37, label %38, label %57

38:                                               ; preds = %34
  %39 = load ptr, ptr %6, align 8, !tbaa !10
  %40 = load i64, ptr %9, align 8, !tbaa !38
  %41 = getelementptr inbounds nuw i8, ptr %39, i64 %40
  %42 = load i8, ptr %41, align 1, !tbaa !22
  %43 = zext i8 %42 to i32
  %44 = load ptr, ptr %7, align 8, !tbaa !10
  %45 = load i64, ptr %9, align 8, !tbaa !38
  %46 = getelementptr inbounds nuw i8, ptr %44, i64 %45
  %47 = load i8, ptr %46, align 1, !tbaa !22
  %48 = zext i8 %47 to i32
  %49 = xor i32 %43, %48
  %50 = trunc i32 %49 to i8
  %51 = load ptr, ptr %5, align 8, !tbaa !10
  %52 = load i64, ptr %9, align 8, !tbaa !38
  %53 = getelementptr inbounds nuw i8, ptr %51, i64 %52
  store i8 %50, ptr %53, align 1, !tbaa !22
  br label %54

54:                                               ; preds = %38
  %55 = load i64, ptr %9, align 8, !tbaa !38
  %56 = add i64 %55, 1
  store i64 %56, ptr %9, align 8, !tbaa !38
  br label %34, !llvm.loop !42

57:                                               ; preds = %34
  call void @llvm.lifetime.end.p0(i64 8, ptr %9) #10
  ret void
}

; Function Attrs: nounwind uwtable
define hidden i32 @mbedtls_aes_crypt_ecb(ptr noundef %0, i32 noundef %1, ptr noundef %2, ptr noundef %3) #0 {
  %5 = alloca i32, align 4
  %6 = alloca ptr, align 8
  %7 = alloca i32, align 4
  %8 = alloca ptr, align 8
  %9 = alloca ptr, align 8
  store ptr %0, ptr %6, align 8, !tbaa !3
  store i32 %1, ptr %7, align 4, !tbaa !12
  store ptr %2, ptr %8, align 8, !tbaa !10
  store ptr %3, ptr %9, align 8, !tbaa !10
  %10 = load i32, ptr %7, align 4, !tbaa !12
  %11 = icmp ne i32 %10, 1
  br i1 %11, label %12, label %16

12:                                               ; preds = %4
  %13 = load i32, ptr %7, align 4, !tbaa !12
  %14 = icmp ne i32 %13, 0
  br i1 %14, label %15, label %16

15:                                               ; preds = %12
  store i32 -33, ptr %5, align 4
  br label %38

16:                                               ; preds = %12, %4
  %17 = call i32 @mbedtls_aesni_has_support(i32 noundef 33554432)
  %18 = icmp ne i32 %17, 0
  br i1 %18, label %19, label %25

19:                                               ; preds = %16
  %20 = load ptr, ptr %6, align 8, !tbaa !3
  %21 = load i32, ptr %7, align 4, !tbaa !12
  %22 = load ptr, ptr %8, align 8, !tbaa !10
  %23 = load ptr, ptr %9, align 8, !tbaa !10
  %24 = call i32 @mbedtls_aesni_crypt_ecb(ptr noundef %20, i32 noundef %21, ptr noundef %22, ptr noundef %23)
  store i32 %24, ptr %5, align 4
  br label %38

25:                                               ; preds = %16
  %26 = load i32, ptr %7, align 4, !tbaa !12
  %27 = icmp eq i32 %26, 0
  br i1 %27, label %28, label %33

28:                                               ; preds = %25
  %29 = load ptr, ptr %6, align 8, !tbaa !3
  %30 = load ptr, ptr %8, align 8, !tbaa !10
  %31 = load ptr, ptr %9, align 8, !tbaa !10
  %32 = call i32 @mbedtls_internal_aes_decrypt(ptr noundef %29, ptr noundef %30, ptr noundef %31)
  store i32 %32, ptr %5, align 4
  br label %38

33:                                               ; preds = %25
  %34 = load ptr, ptr %6, align 8, !tbaa !3
  %35 = load ptr, ptr %8, align 8, !tbaa !10
  %36 = load ptr, ptr %9, align 8, !tbaa !10
  %37 = call i32 @mbedtls_internal_aes_encrypt(ptr noundef %34, ptr noundef %35, ptr noundef %36)
  store i32 %37, ptr %5, align 4
  br label %38

38:                                               ; preds = %33, %28, %19, %15
  %39 = load i32, ptr %5, align 4
  ret i32 %39
}

; Function Attrs: nounwind uwtable
define hidden i32 @mbedtls_aes_crypt_cbc(ptr noundef %0, i32 noundef %1, i64 noundef %2, ptr noundef %3, ptr noundef %4, ptr noundef %5) #0 {
  %7 = alloca i32, align 4
  %8 = alloca ptr, align 8
  %9 = alloca i32, align 4
  %10 = alloca i64, align 8
  %11 = alloca ptr, align 8
  %12 = alloca ptr, align 8
  %13 = alloca ptr, align 8
  %14 = alloca i32, align 4
  %15 = alloca [16 x i8], align 16
  %16 = alloca i32, align 4
  %17 = alloca ptr, align 8
  store ptr %0, ptr %8, align 8, !tbaa !3
  store i32 %1, ptr %9, align 4, !tbaa !12
  store i64 %2, ptr %10, align 8, !tbaa !38
  store ptr %3, ptr %11, align 8, !tbaa !10
  store ptr %4, ptr %12, align 8, !tbaa !10
  store ptr %5, ptr %13, align 8, !tbaa !10
  call void @llvm.lifetime.start.p0(i64 4, ptr %14) #10
  store i32 -110, ptr %14, align 4, !tbaa !12
  call void @llvm.lifetime.start.p0(i64 16, ptr %15) #10
  %18 = load i32, ptr %9, align 4, !tbaa !12
  %19 = icmp ne i32 %18, 1
  br i1 %19, label %20, label %24

20:                                               ; preds = %6
  %21 = load i32, ptr %9, align 4, !tbaa !12
  %22 = icmp ne i32 %21, 0
  br i1 %22, label %23, label %24

23:                                               ; preds = %20
  store i32 -33, ptr %7, align 4
  store i32 1, ptr %16, align 4
  br label %95

24:                                               ; preds = %20, %6
  %25 = load i64, ptr %10, align 8, !tbaa !38
  %26 = icmp eq i64 %25, 0
  br i1 %26, label %27, label %28

27:                                               ; preds = %24
  store i32 0, ptr %7, align 4
  store i32 1, ptr %16, align 4
  br label %95

28:                                               ; preds = %24
  %29 = load i64, ptr %10, align 8, !tbaa !38
  %30 = urem i64 %29, 16
  %31 = icmp ne i64 %30, 0
  br i1 %31, label %32, label %33

32:                                               ; preds = %28
  store i32 -34, ptr %7, align 4
  store i32 1, ptr %16, align 4
  br label %95

33:                                               ; preds = %28
  call void @llvm.lifetime.start.p0(i64 8, ptr %17) #10
  %34 = load ptr, ptr %11, align 8, !tbaa !10
  store ptr %34, ptr %17, align 8, !tbaa !10
  %35 = load i32, ptr %9, align 4, !tbaa !12
  %36 = icmp eq i32 %35, 0
  br i1 %36, label %37, label %65

37:                                               ; preds = %33
  br label %38

38:                                               ; preds = %52, %37
  %39 = load i64, ptr %10, align 8, !tbaa !38
  %40 = icmp ugt i64 %39, 0
  br i1 %40, label %41, label %64

41:                                               ; preds = %38
  %42 = getelementptr inbounds [16 x i8], ptr %15, i64 0, i64 0
  %43 = load ptr, ptr %12, align 8, !tbaa !10
  call void @llvm.memcpy.p0.p0.i64(ptr align 16 %42, ptr align 1 %43, i64 16, i1 false)
  %44 = load ptr, ptr %8, align 8, !tbaa !3
  %45 = load i32, ptr %9, align 4, !tbaa !12
  %46 = load ptr, ptr %12, align 8, !tbaa !10
  %47 = load ptr, ptr %13, align 8, !tbaa !10
  %48 = call i32 @mbedtls_aes_crypt_ecb(ptr noundef %44, i32 noundef %45, ptr noundef %46, ptr noundef %47)
  store i32 %48, ptr %14, align 4, !tbaa !12
  %49 = load i32, ptr %14, align 4, !tbaa !12
  %50 = icmp ne i32 %49, 0
  br i1 %50, label %51, label %52

51:                                               ; preds = %41
  br label %93

52:                                               ; preds = %41
  %53 = load ptr, ptr %13, align 8, !tbaa !10
  %54 = load ptr, ptr %13, align 8, !tbaa !10
  %55 = load ptr, ptr %11, align 8, !tbaa !10
  call void @mbedtls_xor_no_simd(ptr noundef %53, ptr noundef %54, ptr noundef %55, i64 noundef 16)
  %56 = load ptr, ptr %11, align 8, !tbaa !10
  %57 = getelementptr inbounds [16 x i8], ptr %15, i64 0, i64 0
  call void @llvm.memcpy.p0.p0.i64(ptr align 1 %56, ptr align 16 %57, i64 16, i1 false)
  %58 = load ptr, ptr %12, align 8, !tbaa !10
  %59 = getelementptr inbounds i8, ptr %58, i64 16
  store ptr %59, ptr %12, align 8, !tbaa !10
  %60 = load ptr, ptr %13, align 8, !tbaa !10
  %61 = getelementptr inbounds i8, ptr %60, i64 16
  store ptr %61, ptr %13, align 8, !tbaa !10
  %62 = load i64, ptr %10, align 8, !tbaa !38
  %63 = sub i64 %62, 16
  store i64 %63, ptr %10, align 8, !tbaa !38
  br label %38, !llvm.loop !39

64:                                               ; preds = %38
  br label %92

65:                                               ; preds = %33
  br label %66

66:                                               ; preds = %81, %65
  %67 = load i64, ptr %10, align 8, !tbaa !38
  %68 = icmp ugt i64 %67, 0
  br i1 %68, label %69, label %89

69:                                               ; preds = %66
  %70 = load ptr, ptr %13, align 8, !tbaa !10
  %71 = load ptr, ptr %12, align 8, !tbaa !10
  %72 = load ptr, ptr %17, align 8, !tbaa !10
  call void @mbedtls_xor_no_simd(ptr noundef %70, ptr noundef %71, ptr noundef %72, i64 noundef 16)
  %73 = load ptr, ptr %8, align 8, !tbaa !3
  %74 = load i32, ptr %9, align 4, !tbaa !12
  %75 = load ptr, ptr %13, align 8, !tbaa !10
  %76 = load ptr, ptr %13, align 8, !tbaa !10
  %77 = call i32 @mbedtls_aes_crypt_ecb(ptr noundef %73, i32 noundef %74, ptr noundef %75, ptr noundef %76)
  store i32 %77, ptr %14, align 4, !tbaa !12
  %78 = load i32, ptr %14, align 4, !tbaa !12
  %79 = icmp ne i32 %78, 0
  br i1 %79, label %80, label %81

80:                                               ; preds = %69
  br label %93

81:                                               ; preds = %69
  %82 = load ptr, ptr %13, align 8, !tbaa !10
  store ptr %82, ptr %17, align 8, !tbaa !10
  %83 = load ptr, ptr %12, align 8, !tbaa !10
  %84 = getelementptr inbounds i8, ptr %83, i64 16
  store ptr %84, ptr %12, align 8, !tbaa !10
  %85 = load ptr, ptr %13, align 8, !tbaa !10
  %86 = getelementptr inbounds i8, ptr %85, i64 16
  store ptr %86, ptr %13, align 8, !tbaa !10
  %87 = load i64, ptr %10, align 8, !tbaa !38
  %88 = sub i64 %87, 16
  store i64 %88, ptr %10, align 8, !tbaa !38
  br label %66, !llvm.loop !40

89:                                               ; preds = %66
  %90 = load ptr, ptr %11, align 8, !tbaa !10
  %91 = load ptr, ptr %17, align 8, !tbaa !10
  call void @llvm.memcpy.p0.p0.i64(ptr align 1 %90, ptr align 1 %91, i64 16, i1 false)
  br label %92

92:                                               ; preds = %89, %64
  store i32 0, ptr %14, align 4, !tbaa !12
  br label %93

93:                                               ; preds = %92, %80, %51
  %94 = load i32, ptr %14, align 4, !tbaa !12
  store i32 %94, ptr %7, align 4
  store i32 1, ptr %16, align 4
  call void @llvm.lifetime.end.p0(i64 8, ptr %17) #10
  br label %95

95:                                               ; preds = %93, %32, %27, %23
  call void @llvm.lifetime.end.p0(i64 16, ptr %15) #10
  call void @llvm.lifetime.end.p0(i64 4, ptr %14) #10
  %96 = load i32, ptr %7, align 4
  ret i32 %96
}