; Function Attrs: nounwind uwtable
define hidden i32 @mbedtls_aes_crypt_cbc(ptr noundef %0, i32 noundef %1, i64 noundef %2, ptr noundef captures(none) %3, ptr noundef %4, ptr noundef %5) local_unnamed_addr #2 {
  %7 = alloca [16 x i8], align 16
  call void @llvm.lifetime.start.p0(i64 16, ptr nonnull %7)
  %or.cond = icmp ugt i32 %1, 1
  br i1 %or.cond, label %.loopexit, label %8

8:                                                ; preds = %6
  %9 = icmp eq i64 %2, 0
  br i1 %9, label %.loopexit, label %10

10:                                               ; preds = %8
  %11 = and i64 %2, 15
  %.not = icmp eq i64 %11, 0
  br i1 %.not, label %12, label %.loopexit

12:                                               ; preds = %10
  %13 = icmp eq i32 %1, 0
  br i1 %13, label %.preheader66.preheader, label %.preheader68

.preheader66.preheader:                           ; preds = %12
  %14 = getelementptr inbounds nuw i8, ptr %3, i64 8
  br label %.preheader66

.preheader66:                                     ; preds = %.preheader66.preheader, %mbedtls_aes_crypt_ecb.exit.thread
  %.03883 = phi ptr [ %23, %mbedtls_aes_crypt_ecb.exit.thread ], [ %5, %.preheader66.preheader ]
  %.03982 = phi ptr [ %22, %mbedtls_aes_crypt_ecb.exit.thread ], [ %4, %.preheader66.preheader ]
  %.04281 = phi i64 [ %24, %mbedtls_aes_crypt_ecb.exit.thread ], [ %2, %.preheader66.preheader ]
  call void @llvm.memcpy.p0.p0.i64(ptr noundef nonnull align 16 dereferenceable(16) %7, ptr noundef nonnull align 1 dereferenceable(16) %.03982, i64 16, i1 false)
  %15 = tail call i32 @mbedtls_aesni_has_support(i32 noundef 33554432) #11
  %.not.i = icmp eq i32 %15, 0
  br i1 %.not.i, label %16, label %mbedtls_aes_crypt_ecb.exit

16:                                               ; preds = %.preheader66
  %17 = tail call i32 @mbedtls_internal_aes_decrypt(ptr noundef %0, ptr noundef nonnull %.03982, ptr noundef %.03883)
  br label %mbedtls_aes_crypt_ecb.exit.thread

mbedtls_aes_crypt_ecb.exit:                       ; preds = %.preheader66
  %18 = tail call i32 @mbedtls_aesni_crypt_ecb(ptr noundef %0, i32 noundef 0, ptr noundef nonnull %.03982, ptr noundef %.03883) #11
  %.not50 = icmp eq i32 %18, 0
  br i1 %.not50, label %mbedtls_aes_crypt_ecb.exit.thread, label %.loopexit

mbedtls_aes_crypt_ecb.exit.thread:                ; preds = %mbedtls_aes_crypt_ecb.exit, %16
  %.0.copyload.i56 = load i64, ptr %.03883, align 1
  %.0.copyload.i55 = load i64, ptr %3, align 1
  %19 = xor i64 %.0.copyload.i55, %.0.copyload.i56
  store i64 %19, ptr %.03883, align 1
  %20 = getelementptr inbounds nuw i8, ptr %.03883, i64 8
  %.0.copyload.i56.c = load i64, ptr %20, align 1
  %.0.copyload.i55.c = load i64, ptr %14, align 1
  %21 = xor i64 %.0.copyload.i55.c, %.0.copyload.i56.c
  store i64 %21, ptr %20, align 1
  call void @llvm.memcpy.p0.p0.i64(ptr noundef nonnull align 1 dereferenceable(16) %3, ptr noundef nonnull align 16 dereferenceable(16) %7, i64 16, i1 false)
  %22 = getelementptr inbounds nuw i8, ptr %.03982, i64 16
  %23 = getelementptr inbounds nuw i8, ptr %.03883, i64 16
  %24 = add i64 %.04281, -16
  %.not49 = icmp eq i64 %24, 0
  br i1 %.not49, label %.loopexit, label %.preheader66, !llvm.loop !25

.preheader68:                                     ; preds = %12, %33
  %.077 = phi ptr [ %.176, %33 ], [ %3, %12 ]
  %.176 = phi ptr [ %35, %33 ], [ %5, %12 ]
  %.14075 = phi ptr [ %34, %33 ], [ %4, %12 ]
  %.14374 = phi i64 [ %36, %33 ], [ %2, %12 ]
  %.0.copyload.i54 = load i64, ptr %.14075, align 1
  %.0.copyload.i = load i64, ptr %.077, align 1
  %25 = xor i64 %.0.copyload.i, %.0.copyload.i54
  store i64 %25, ptr %.176, align 1
  %26 = getelementptr inbounds nuw i8, ptr %.14075, i64 8
  %.0.copyload.i54.c = load i64, ptr %26, align 1
  %27 = getelementptr inbounds nuw i8, ptr %.077, i64 8
  %.0.copyload.i.c = load i64, ptr %27, align 1
  %28 = xor i64 %.0.copyload.i.c, %.0.copyload.i54.c
  %29 = getelementptr inbounds nuw i8, ptr %.176, i64 8
  store i64 %28, ptr %29, align 1
  %30 = tail call i32 @mbedtls_aesni_has_support(i32 noundef 33554432) #11
  %.not.i59 = icmp eq i32 %30, 0
  br i1 %.not.i59, label %mbedtls_aes_crypt_ecb.exit61.thread, label %mbedtls_aes_crypt_ecb.exit61

mbedtls_aes_crypt_ecb.exit61.thread:              ; preds = %.preheader68
  %31 = tail call i32 @mbedtls_internal_aes_encrypt(ptr noundef %0, ptr noundef nonnull %.176, ptr noundef nonnull %.176)
  br label %33

mbedtls_aes_crypt_ecb.exit61:                     ; preds = %.preheader68
  %32 = tail call i32 @mbedtls_aesni_crypt_ecb(ptr noundef %0, i32 noundef %1, ptr noundef nonnull %.176, ptr noundef nonnull %.176) #11
  %.not48 = icmp eq i32 %32, 0
  br i1 %.not48, label %33, label %.loopexit

33:                                               ; preds = %mbedtls_aes_crypt_ecb.exit61.thread, %mbedtls_aes_crypt_ecb.exit61
  %34 = getelementptr inbounds nuw i8, ptr %.14075, i64 16
  %35 = getelementptr inbounds nuw i8, ptr %.176, i64 16
  %36 = add i64 %.14374, -16
  %.not47 = icmp eq i64 %36, 0
  br i1 %.not47, label %37, label %.preheader68, !llvm.loop !26

37:                                               ; preds = %33
  tail call void @llvm.memcpy.p0.p0.i64(ptr noundef nonnull align 1 dereferenceable(16) %3, ptr noundef nonnull align 1 dereferenceable(16) %.176, i64 16, i1 false)
  br label %.loopexit

.loopexit:                                        ; preds = %mbedtls_aes_crypt_ecb.exit61, %mbedtls_aes_crypt_ecb.exit, %mbedtls_aes_crypt_ecb.exit.thread, %37, %10, %8, %6
  %.041 = phi i32 [ -33, %6 ], [ 0, %8 ], [ -34, %10 ], [ 0, %37 ], [ 0, %mbedtls_aes_crypt_ecb.exit.thread ], [ %18, %mbedtls_aes_crypt_ecb.exit ], [ %32, %mbedtls_aes_crypt_ecb.exit61 ]
  call void @llvm.lifetime.end.p0(i64 16, ptr nonnull %7)
  ret i32 %.041
}